; ModuleID = 'source-C-CXX/2/867.c'
source_filename = "source-C-CXX/2/867.c"
target datalayout = "e-m:e-p270:32:32-p271:32:32-p272:64:64-i64:64-f80:128-n8:16:32:64-S128"
target triple = "x86_64-pc-linux-gnu"

@.str = private unnamed_addr constant [6 x i8] c"%d %d\00", align 1
@.str.1 = private unnamed_addr constant [3 x i8] c"%d\00", align 1
@.str.2 = private unnamed_addr constant [4 x i8] c"yes\00", align 1
@.str.3 = private unnamed_addr constant [3 x i8] c"no\00", align 1

; Function Attrs: nofree nounwind sspstrong uwtable
define dso_local i32 @main() local_unnamed_addr #0 {
  %1 = alloca i32, align 4
  %2 = alloca i32, align 4
  %3 = alloca [100 x i32], align 16
  %4 = bitcast i32* %1 to i8*
  call void @llvm.lifetime.start.p0i8(i64 4, i8* nonnull %4) #3
  %5 = bitcast i32* %2 to i8*
  call void @llvm.lifetime.start.p0i8(i64 4, i8* nonnull %5) #3
  %6 = call i32 (i8*, ...) @__isoc99_scanf(i8* getelementptr inbounds ([6 x i8], [6 x i8]* @.str, i64 0, i64 0), i32* nonnull %1, i32* nonnull %2)
  %7 = bitcast [100 x i32]* %3 to i8*
  call void @llvm.lifetime.start.p0i8(i64 400, i8* nonnull %7) #3
  %8 = load i32, i32* %1, align 4, !tbaa !5
  %9 = icmp sgt i32 %8, 0
  br i1 %9, label %14, label %56

10:                                               ; preds = %14
  %11 = icmp sgt i32 %19, 0
  br i1 %11, label %12, label %56

12:                                               ; preds = %10
  %13 = load i32, i32* %2, align 4
  br label %26

14:                                               ; preds = %0, %14
  %15 = phi i64 [ %18, %14 ], [ 0, %0 ]
  %16 = getelementptr inbounds [100 x i32], [100 x i32]* %3, i64 0, i64 %15
  %17 = call i32 (i8*, ...) @__isoc99_scanf(i8* getelementptr inbounds ([3 x i8], [3 x i8]* @.str.1, i64 0, i64 0), i32* nonnull %16)
  %18 = add nuw nsw i64 %15, 1
  %19 = load i32, i32* %1, align 4, !tbaa !5
  %20 = sext i32 %19 to i64
  %21 = icmp slt i64 %18, %20
  br i1 %21, label %14, label %10, !llvm.loop !9

22:                                               ; preds = %49
  %23 = load i32, i32* %1, align 4, !tbaa !5
  %24 = sext i32 %23 to i64
  %25 = icmp slt i64 %53, %24
  br i1 %25, label %26, label %54, !llvm.loop !11

26:                                               ; preds = %12, %22
  %27 = phi i32 [ %13, %12 ], [ %50, %22 ]
  %28 = phi i64 [ 0, %12 ], [ %53, %22 ]
  %29 = phi i32 [ %19, %12 ], [ %23, %22 ]
  %30 = phi i32 [ undef, %12 ], [ %51, %22 ]
  %31 = add i32 %29, -1
  %32 = sext i32 %31 to i64
  %33 = icmp slt i64 %28, %32
  br i1 %33, label %34, label %49

34:                                               ; preds = %26
  %35 = getelementptr inbounds [100 x i32], [100 x i32]* %3, i64 0, i64 %28
  %36 = load i32, i32* %35, align 4, !tbaa !5
  br label %40

37:                                               ; preds = %40
  %38 = add nsw i64 %41, -1
  %39 = icmp sgt i64 %38, %28
  br i1 %39, label %40, label %49, !llvm.loop !12

40:                                               ; preds = %34, %37
  %41 = phi i64 [ %32, %34 ], [ %38, %37 ]
  %42 = getelementptr inbounds [100 x i32], [100 x i32]* %3, i64 0, i64 %41
  %43 = load i32, i32* %42, align 4, !tbaa !5
  %44 = add nsw i32 %43, %36
  %45 = icmp eq i32 %44, %27
  br i1 %45, label %46, label %37, !llvm.loop !12

46:                                               ; preds = %40
  %47 = call i32 (i8*, ...) @printf(i8* nonnull dereferenceable(1) getelementptr inbounds ([4 x i8], [4 x i8]* @.str.2, i64 0, i64 0))
  %48 = load i32, i32* %2, align 4, !tbaa !5
  br label %49

49:                                               ; preds = %37, %26, %46
  %50 = phi i32 [ %48, %46 ], [ %27, %26 ], [ %27, %37 ]
  %51 = phi i32 [ %27, %46 ], [ %30, %26 ], [ %44, %37 ]
  %52 = icmp eq i32 %51, %50
  %53 = add nuw nsw i64 %28, 1
  br i1 %52, label %54, label %22

54:                                               ; preds = %22, %49
  %55 = icmp eq i32 %51, %50
  br i1 %55, label %58, label %56

56:                                               ; preds = %0, %10, %54
  %57 = call i32 (i8*, ...) @printf(i8* nonnull dereferenceable(1) getelementptr inbounds ([3 x i8], [3 x i8]* @.str.3, i64 0, i64 0))
  br label %58

58:                                               ; preds = %56, %54
  call void @llvm.lifetime.end.p0i8(i64 400, i8* nonnull %7) #3
  call void @llvm.lifetime.end.p0i8(i64 4, i8* nonnull %5) #3
  call void @llvm.lifetime.end.p0i8(i64 4, i8* nonnull %4) #3
  ret i32 0
}

; Function Attrs: argmemonly mustprogress nofree nosync nounwind willreturn
declare void @llvm.lifetime.start.p0i8(i64 immarg, i8* nocapture) #1

; Function Attrs: nofree nounwind
declare noundef i32 @__isoc99_scanf(i8* nocapture noundef readonly, ...) local_unnamed_addr #2

; Function Attrs: argmemonly mustprogress nofree nosync nounwind willreturn
declare void @llvm.lifetime.end.p0i8(i64 immarg, i8* nocapture) #1

; Function Attrs: nofree nounwind
declare noundef i32 @printf(i8* nocapture noundef readonly, ...) local_unnamed_addr #2


!llvm.module.flags = !{!0, !1, !2, !3}
!llvm.ident = !{!4}

!0 = !{i32 1, !"wchar_size", i32 4}
!1 = !{i32 7, !"PIC Level", i32 2}
!2 = !{i32 7, !"PIE Level", i32 2}
!3 = !{i32 7, !"uwtable", i32 1}
!4 = !{!"clang version 13.0.0"}
!5 = !{!6, !6, i64 0}
!6 = !{!"int", !7, i64 0}
!7 = !{!"omnipotent char", !8, i64 0}
!8 = !{!"Simple C/C++ TBAA"}
!9 = distinct !{!9, !10}
!10 = !{!"llvm.loop.mustprogress"}
!11 = distinct !{!11, !10}
!12 = distinct !{!12, !10}
